target datalayout = "e-m:e-p270:32:32-p271:32:32-p272:64:64-i64:64-i128:128-f80:128-n8:16:32:64-S128"
target triple = "x86_64-pc-linux-gnu"

; Function Attrs: nounwind uwtable
define void @SUNDlsMat_denseCopy(ptr noundef %0, ptr noundef %1, i64 noundef %2, i64 noundef %3) #0 {
  %5 = alloca ptr, align 8
  %6 = alloca ptr, align 8
  %7 = alloca i64, align 8
  %8 = alloca i64, align 8
  %9 = alloca i64, align 8
  %10 = alloca i64, align 8
  %11 = alloca ptr, align 8
  %12 = alloca ptr, align 8
  store ptr %0, ptr %5, align 8, !tbaa !18
  store ptr %1, ptr %6, align 8, !tbaa !18
  store i64 %2, ptr %7, align 8, !tbaa !19
  store i64 %3, ptr %8, align 8, !tbaa !19
  call void @llvm.lifetime.start.p0(i64 8, ptr %9) #4
  call void @llvm.lifetime.start.p0(i64 8, ptr %10) #4
  call void @llvm.lifetime.start.p0(i64 8, ptr %11) #4
  call void @llvm.lifetime.start.p0(i64 8, ptr %12) #4
  store i64 0, ptr %10, align 8, !tbaa !19
  br label %13

13:                                               ; preds = %42, %4
  %14 = load i64, ptr %10, align 8, !tbaa !19
  %15 = load i64, ptr %8, align 8, !tbaa !19
  %16 = icmp slt i64 %14, %15
  br i1 %16, label %17, label %45

17:                                               ; preds = %13
  %18 = load ptr, ptr %5, align 8, !tbaa !18
  %19 = load i64, ptr %10, align 8, !tbaa !19
  %20 = getelementptr inbounds ptr, ptr %18, i64 %19
  %21 = load ptr, ptr %20, align 8, !tbaa !20
  store ptr %21, ptr %11, align 8, !tbaa !20
  %22 = load ptr, ptr %6, align 8, !tbaa !18
  %23 = load i64, ptr %10, align 8, !tbaa !19
  %24 = getelementptr inbounds ptr, ptr %22, i64 %23
  %25 = load ptr, ptr %24, align 8, !tbaa !20
  store ptr %25, ptr %12, align 8, !tbaa !20
  store i64 0, ptr %9, align 8, !tbaa !19
  br label %26

26:                                               ; preds = %38, %17
  %27 = load i64, ptr %9, align 8, !tbaa !19
  %28 = load i64, ptr %7, align 8, !tbaa !19
  %29 = icmp slt i64 %27, %28
  br i1 %29, label %30, label %41

30:                                               ; preds = %26
  %31 = load ptr, ptr %11, align 8, !tbaa !20
  %32 = load i64, ptr %9, align 8, !tbaa !19
  %33 = getelementptr inbounds double, ptr %31, i64 %32
  %34 = load double, ptr %33, align 8, !tbaa !21
  %35 = load ptr, ptr %12, align 8, !tbaa !20
  %36 = load i64, ptr %9, align 8, !tbaa !19
  %37 = getelementptr inbounds double, ptr %35, i64 %36
  store double %34, ptr %37, align 8, !tbaa !21
  br label %38

38:                                               ; preds = %30
  %39 = load i64, ptr %9, align 8, !tbaa !19
  %40 = add nsw i64 %39, 1
  store i64 %40, ptr %9, align 8, !tbaa !19
  br label %26

41:                                               ; preds = %26
  br label %42

42:                                               ; preds = %41
  %43 = load i64, ptr %10, align 8, !tbaa !19
  %44 = add nsw i64 %43, 1
  store i64 %44, ptr %10, align 8, !tbaa !19
  br label %13

45:                                               ; preds = %13
  call void @llvm.lifetime.end.p0(i64 8, ptr %12) #4
  call void @llvm.lifetime.end.p0(i64 8, ptr %11) #4
  call void @llvm.lifetime.end.p0(i64 8, ptr %10) #4
  call void @llvm.lifetime.end.p0(i64 8, ptr %9) #4
  ret void
}