; Function Attrs: nofree norecurse nosync nounwind memory(readwrite, inaccessiblemem: none) uwtable
define void @SUNDlsMat_denseCopy(ptr noundef readonly captures(none) %0, ptr noundef readonly captures(none) %1, i64 noundef %2, i64 noundef %3) local_unnamed_addr #0 {
  %5 = icmp sgt i64 %3, 0
  %6 = icmp sgt i64 %2, 0
  %or.cond = and i1 %5, %6
  br i1 %or.cond, label %.lr.ph.us, label %._crit_edge18

.lr.ph.us:                                        ; preds = %4, %._crit_edge.us
  %.01315.us = phi i64 [ %16, %._crit_edge.us ], [ 0, %4 ]
  %7 = getelementptr inbounds nuw ptr, ptr %0, i64 %.01315.us
  %8 = load ptr, ptr %7, align 8, !tbaa !14
  %9 = getelementptr inbounds nuw ptr, ptr %1, i64 %.01315.us
  %10 = load ptr, ptr %9, align 8, !tbaa !14
  br label %11

11:                                               ; preds = %.lr.ph.us, %11
  %.014.us = phi i64 [ 0, %.lr.ph.us ], [ %15, %11 ]
  %12 = getelementptr inbounds nuw double, ptr %8, i64 %.014.us
  %13 = load double, ptr %12, align 8, !tbaa !15
  %14 = getelementptr inbounds nuw double, ptr %10, i64 %.014.us
  store double %13, ptr %14, align 8, !tbaa !15
  %15 = add nuw nsw i64 %.014.us, 1
  %exitcond.not = icmp eq i64 %15, %2
  br i1 %exitcond.not, label %._crit_edge.us, label %11

._crit_edge.us:                                   ; preds = %11
  %16 = add nuw nsw i64 %.01315.us, 1
  %exitcond20.not = icmp eq i64 %16, %3
  br i1 %exitcond20.not, label %._crit_edge18, label %.lr.ph.us

._crit_edge18:                                    ; preds = %._crit_edge.us, %4
  ret void
}